target datalayout = "e-m:e-p270:32:32-p271:32:32-p272:64:64-i64:64-i128:128-f80:128-n8:16:32:64-S128"
target triple = "x86_64-pc-linux-gnu"

%struct.pointf_s = type { double, double }
%struct.Agobj_s = type { %struct.Agtag_s, ptr }
%struct.Agtag_s = type { i32, i64 }
%struct.Agnodeinfo_t = type { %struct.Agrec_s, ptr, ptr, %struct.pointf_s, double, double, %struct.boxf, double, double, double, double, double, ptr, ptr, ptr, i8, i8, i8, i8, i32, i32, i32, ptr, double, i8, i8, ptr, ptr, i8, i64, i8, i8, i8, ptr, ptr, %struct.elist, %struct.elist, %struct.elist, %struct.elist, %struct.elist, ptr, i32, ptr, i32, i32, double, %struct.elist, %struct.elist, %struct.elist, %struct.elist, ptr, i32, i32, i32, [1 x double] }
%struct.Agrec_s = type { ptr, ptr }
%struct.boxf = type { %struct.pointf_s, %struct.pointf_s }
%struct.elist = type { ptr, i64 }
%struct.shape_desc = type { ptr, ptr, ptr, i8 }
%struct.textlabel_t = type { ptr, ptr, ptr, i32, double, %struct.pointf_s, %struct.pointf_s, %struct.pointf_s, %union.anon.0, i8, i8, i8 }
%union.anon.0 = type { %struct.anon.1 }
%struct.anon.1 = type { ptr, i64 }
%struct.port = type { %struct.pointf_s, double, ptr, i8, i8, i8, i8, i8, i8, ptr }
%union.inside_t = type { %struct.anon.3 }
%struct.anon.3 = type { ptr, ptr, ptr, double, ptr, i64, i64, double, double, double, double }

@.str.83 = private unnamed_addr constant [2 x i8] c"_\00", align 1
@.str.84 = private unnamed_addr constant [61 x i8] c"node %s, port %s, unrecognized compass point '%s' - ignored\0A\00", align 1
@Center = internal global { %struct.pointf_s, double, ptr, i8, i8, i8, i8, i8, i8, [2 x i8], ptr } { %struct.pointf_s zeroinitializer, double -1.000000e+00, ptr null, i8 0, i8 0, i8 1, i8 0, i8 0, i8 0, [2 x i8] zeroinitializer, ptr null }, align 8
@.str.86 = private unnamed_addr constant [31 x i8] c"node %s, port %s unrecognized\0A\00", align 1

; Function Attrs: nounwind uwtable
define internal void @unrecognized(ptr noundef %0, ptr noundef %1) #0 {
  %3 = alloca ptr, align 8
  %4 = alloca ptr, align 8
  store ptr %0, ptr %3, align 8, !tbaa !35
  store ptr %1, ptr %4, align 8, !tbaa !75
  %5 = load ptr, ptr %3, align 8, !tbaa !35
  %6 = call ptr @agnameof(ptr noundef %5)
  %7 = load ptr, ptr %4, align 8, !tbaa !75
  call void (ptr, ...) @agwarningf(ptr noundef @.str.86, ptr noundef %6, ptr noundef %7)
  ret void
}

; Function Attrs: nounwind uwtable
define internal zeroext i1 @IS_BOX(ptr noundef %0) #0 {
  %2 = alloca ptr, align 8
  store ptr %0, ptr %2, align 8, !tbaa !35
  %3 = load ptr, ptr %2, align 8, !tbaa !35
  %4 = getelementptr inbounds nuw %struct.Agobj_s, ptr %3, i32 0, i32 1
  %5 = load ptr, ptr %4, align 8, !tbaa !37
  %6 = getelementptr inbounds nuw %struct.Agnodeinfo_t, ptr %5, i32 0, i32 1
  %7 = load ptr, ptr %6, align 8, !tbaa !41
  %8 = getelementptr inbounds nuw %struct.shape_desc, ptr %7, i32 0, i32 2
  %9 = load ptr, ptr %8, align 8, !tbaa !61
  %10 = icmp eq ptr %9, @p_box
  ret i1 %10
}

; Function Attrs: nounwind uwtable
define internal void @poly_port(ptr dead_on_unwind noalias writable sret(%struct.port) align 8 %0, ptr noundef %1, ptr noundef %2, ptr noundef %3) #0 {
  %5 = alloca ptr, align 8
  %6 = alloca ptr, align 8
  %7 = alloca ptr, align 8
  %8 = alloca %struct.port, align 8
  %9 = alloca ptr, align 8
  %10 = alloca i8, align 1
  %11 = alloca i32, align 4
  %12 = alloca ptr, align 8
  %13 = alloca %union.inside_t, align 8
  store ptr %1, ptr %5, align 8, !tbaa !35
  store ptr %2, ptr %6, align 8, !tbaa !75
  store ptr %3, ptr %7, align 8, !tbaa !75
  call void @llvm.lifetime.start.p0(i64 48, ptr %8) #13
  call void @llvm.lifetime.start.p0(i64 8, ptr %9) #13
  call void @llvm.lifetime.start.p0(i64 1, ptr %10) #13
  %14 = load ptr, ptr %6, align 8, !tbaa !75
  %15 = getelementptr inbounds i8, ptr %14, i64 0
  %16 = load i8, ptr %15, align 1, !tbaa !98
  %17 = sext i8 %16 to i32
  %18 = icmp eq i32 %17, 0
  br i1 %18, label %19, label %20

19:                                               ; preds = %4
  call void @llvm.memcpy.p0.p0.i64(ptr align 8 %0, ptr align 8 @Center, i64 48, i1 false), !tbaa.struct !172
  store i32 1, ptr %11, align 4
  br label %72

20:                                               ; preds = %4
  %21 = load ptr, ptr %7, align 8, !tbaa !75
  %22 = icmp eq ptr %21, null
  br i1 %22, label %23, label %24

23:                                               ; preds = %20
  store ptr @.str.83, ptr %7, align 8, !tbaa !75
  br label %24

24:                                               ; preds = %23, %20
  store i8 15, ptr %10, align 1, !tbaa !98
  %25 = load ptr, ptr %5, align 8, !tbaa !35
  %26 = getelementptr inbounds nuw %struct.Agobj_s, ptr %25, i32 0, i32 1
  %27 = load ptr, ptr %26, align 8, !tbaa !37
  %28 = getelementptr inbounds nuw %struct.Agnodeinfo_t, ptr %27, i32 0, i32 12
  %29 = load ptr, ptr %28, align 8, !tbaa !74
  %30 = getelementptr inbounds nuw %struct.textlabel_t, ptr %29, i32 0, i32 11
  %31 = load i8, ptr %30, align 2, !tbaa !179, !range !31, !noundef !32
  %32 = trunc i8 %31 to i1
  br i1 %32, label %33, label %51

33:                                               ; preds = %24
  %34 = load ptr, ptr %5, align 8, !tbaa !35
  %35 = load ptr, ptr %6, align 8, !tbaa !75
  %36 = call ptr @html_port(ptr noundef %34, ptr noundef %35, ptr noundef %10)
  store ptr %36, ptr %9, align 8, !tbaa !34
  %37 = icmp ne ptr %36, null
  br i1 %37, label %38, label %51

38:                                               ; preds = %33
  %39 = load ptr, ptr %5, align 8, !tbaa !35
  %40 = load ptr, ptr %9, align 8, !tbaa !34
  %41 = load ptr, ptr %7, align 8, !tbaa !75
  %42 = load i8, ptr %10, align 1, !tbaa !98
  %43 = call i32 @compassPort(ptr noundef %39, ptr noundef %40, ptr noundef %8, ptr noundef %41, i8 noundef zeroext %42, ptr noundef null)
  %44 = icmp ne i32 %43, 0
  br i1 %44, label %45, label %50

45:                                               ; preds = %38
  %46 = load ptr, ptr %5, align 8, !tbaa !35
  %47 = call ptr @agnameof(ptr noundef %46)
  %48 = load ptr, ptr %6, align 8, !tbaa !75
  %49 = load ptr, ptr %7, align 8, !tbaa !75
  call void (ptr, ...) @agwarningf(ptr noundef @.str.84, ptr noundef %47, ptr noundef %48, ptr noundef %49)
  br label %50

50:                                               ; preds = %45, %38
  br label %70

51:                                               ; preds = %33, %24
  call void @llvm.lifetime.start.p0(i64 8, ptr %12) #13
  call void @llvm.lifetime.start.p0(i64 88, ptr %13) #13
  call void @llvm.memset.p0.i64(ptr align 8 %13, i8 0, i64 88, i1 false)
  %52 = load ptr, ptr %5, align 8, !tbaa !35
  %53 = call zeroext i1 @IS_BOX(ptr noundef %52)
  br i1 %53, label %54, label %55

54:                                               ; preds = %51
  store ptr null, ptr %12, align 8, !tbaa !157
  br label %59

55:                                               ; preds = %51
  %56 = load ptr, ptr %5, align 8, !tbaa !35
  %57 = getelementptr inbounds nuw %struct.anon.3, ptr %13, i32 0, i32 0
  store ptr %56, ptr %57, align 8, !tbaa !98
  %58 = getelementptr inbounds nuw %struct.anon.3, ptr %13, i32 0, i32 1
  store ptr null, ptr %58, align 8, !tbaa !98
  store ptr %13, ptr %12, align 8, !tbaa !157
  br label %59

59:                                               ; preds = %55, %54
  %60 = load ptr, ptr %5, align 8, !tbaa !35
  %61 = load ptr, ptr %6, align 8, !tbaa !75
  %62 = load i8, ptr %10, align 1, !tbaa !98
  %63 = load ptr, ptr %12, align 8, !tbaa !157
  %64 = call i32 @compassPort(ptr noundef %60, ptr noundef null, ptr noundef %8, ptr noundef %61, i8 noundef zeroext %62, ptr noundef %63)
  %65 = icmp ne i32 %64, 0
  br i1 %65, label %66, label %69

66:                                               ; preds = %59
  %67 = load ptr, ptr %5, align 8, !tbaa !35
  %68 = load ptr, ptr %6, align 8, !tbaa !75
  call void @unrecognized(ptr noundef %67, ptr noundef %68)
  br label %69

69:                                               ; preds = %66, %59
  call void @llvm.lifetime.end.p0(i64 88, ptr %13) #13
  call void @llvm.lifetime.end.p0(i64 8, ptr %12) #13
  br label %70

70:                                               ; preds = %69, %50
  %71 = getelementptr inbounds nuw %struct.port, ptr %8, i32 0, i32 9
  store ptr null, ptr %71, align 8, !tbaa !137
  call void @llvm.memcpy.p0.p0.i64(ptr align 8 %0, ptr align 8 %8, i64 48, i1 false), !tbaa.struct !172
  store i32 1, ptr %11, align 4
  br label %72

72:                                               ; preds = %70, %19
  call void @llvm.lifetime.end.p0(i64 1, ptr %10) #13
  call void @llvm.lifetime.end.p0(i64 8, ptr %9) #13
  call void @llvm.lifetime.end.p0(i64 48, ptr %8) #13
  ret void
}