; Function Attrs: nounwind uwtable
define internal void @poly_port(ptr dead_on_unwind noalias writable writeonly sret(%struct.port) align 8 captures(none) initializes((0, 48)) %0, ptr noundef %1, ptr noundef %2, ptr noundef %3) #0 {
  %5 = alloca %struct.port, align 8
  %6 = alloca i8, align 1
  %7 = alloca %union.inside_t, align 8
  call void @llvm.lifetime.start.p0(i64 48, ptr nonnull %5) #26
  call void @llvm.lifetime.start.p0(i64 1, ptr nonnull %6) #26
  %8 = load i8, ptr %2, align 1, !tbaa !81
  %9 = icmp eq i8 %8, 0
  br i1 %9, label %10, label %11

10:                                               ; preds = %4
  tail call void @llvm.memcpy.p0.p0.i64(ptr noundef nonnull align 8 dereferenceable(48) %0, ptr noundef nonnull align 8 dereferenceable(48) @Center, i64 48, i1 false), !tbaa.struct !148
  br label %40

11:                                               ; preds = %4
  %12 = icmp eq ptr %3, null
  %spec.store.select = select i1 %12, ptr @.str.83, ptr %3
  store i8 15, ptr %6, align 1, !tbaa !81
  %13 = getelementptr inbounds nuw i8, ptr %1, i64 16
  %14 = load ptr, ptr %13, align 8, !tbaa !21
  %15 = getelementptr inbounds nuw i8, ptr %14, i64 136
  %16 = load ptr, ptr %15, align 8, !tbaa !60
  %17 = getelementptr inbounds nuw i8, ptr %16, i64 106
  %18 = load i8, ptr %17, align 2, !tbaa !155, !range !77, !noundef !78
  %19 = trunc nuw i8 %18 to i1
  br i1 %19, label %20, label %27

20:                                               ; preds = %11
  %21 = call ptr @html_port(ptr noundef nonnull %1, ptr noundef nonnull %2, ptr noundef nonnull %6) #26
  %.not = icmp eq ptr %21, null
  br i1 %.not, label %._crit_edge, label %22

._crit_edge:                                      ; preds = %20
  %.val.pre = load ptr, ptr %13, align 8, !tbaa !21
  br label %27

22:                                               ; preds = %20
  %23 = load i8, ptr %6, align 1, !tbaa !81
  %24 = call fastcc i32 @compassPort(ptr noundef nonnull %1, ptr noundef nonnull %21, ptr noundef nonnull %5, ptr noundef nonnull %spec.store.select, i8 noundef zeroext %23, ptr noundef null)
  %.not20 = icmp eq i32 %24, 0
  br i1 %.not20, label %38, label %25

25:                                               ; preds = %22
  %26 = call ptr @agnameof(ptr noundef nonnull %1) #26
  call void (ptr, ...) @agwarningf(ptr noundef nonnull @.str.84, ptr noundef %26, ptr noundef nonnull %2, ptr noundef nonnull %spec.store.select) #26
  br label %38

27:                                               ; preds = %._crit_edge, %11
  %.val = phi ptr [ %.val.pre, %._crit_edge ], [ %14, %11 ]
  call void @llvm.lifetime.start.p0(i64 88, ptr nonnull %7) #26
  call void @llvm.memset.p0.i64(ptr noundef nonnull align 8 dereferenceable(88) %7, i8 0, i64 88, i1 false)
  %28 = getelementptr i8, ptr %.val, i64 16
  %.val.val = load ptr, ptr %28, align 8, !tbaa !26
  %29 = getelementptr i8, ptr %.val.val, i64 16
  %.val.val.val = load ptr, ptr %29, align 8, !tbaa !46
  %30 = icmp eq ptr %.val.val.val, @p_box
  br i1 %30, label %32, label %31

31:                                               ; preds = %27
  store ptr %1, ptr %7, align 8, !tbaa !81
  br label %32

32:                                               ; preds = %27, %31
  %.0 = phi ptr [ %7, %31 ], [ null, %27 ]
  %33 = load i8, ptr %6, align 1, !tbaa !81
  %34 = call fastcc i32 @compassPort(ptr noundef nonnull %1, ptr noundef null, ptr noundef nonnull %5, ptr noundef nonnull %2, i8 noundef zeroext %33, ptr noundef %.0)
  %.not19 = icmp eq i32 %34, 0
  br i1 %.not19, label %37, label %35

35:                                               ; preds = %32
  %36 = call ptr @agnameof(ptr noundef nonnull %1) #26
  call void (ptr, ...) @agwarningf(ptr noundef nonnull @.str.86, ptr noundef %36, ptr noundef nonnull %2) #26
  br label %37

37:                                               ; preds = %35, %32
  call void @llvm.lifetime.end.p0(i64 88, ptr nonnull %7) #26
  br label %38

38:                                               ; preds = %22, %25, %37
  %39 = getelementptr inbounds nuw i8, ptr %5, i64 40
  store ptr null, ptr %39, align 8, !tbaa !135
  call void @llvm.memcpy.p0.p0.i64(ptr noundef nonnull align 8 dereferenceable(48) %0, ptr noundef nonnull align 8 dereferenceable(48) %5, i64 48, i1 false), !tbaa.struct !148
  br label %40

40:                                               ; preds = %38, %10
  call void @llvm.lifetime.end.p0(i64 1, ptr nonnull %6) #26
  call void @llvm.lifetime.end.p0(i64 48, ptr nonnull %5) #26
  ret void
}